target datalayout = "e-m:e-p270:32:32-p271:32:32-p272:64:64-i64:64-i128:128-f80:128-n8:16:32:64-S128"
target triple = "x86_64-pc-linux-gnu"

%struct.AVChannelLayout = type { i32, i32, %union.anon.2, ptr }
%union.anon.2 = type { i64 }
%struct.AACDecContext = type { ptr, ptr, %struct.AACDecDSP, %struct.AACDecProc, ptr, i32, %struct.DynamicRangeControl, [4 x [64 x ptr]], [4 x [64 x ptr]], i32, i32, [8 x i8], %union.anon, %union.anon.0, ptr, ptr, ptr, ptr, ptr, ptr, ptr, ptr, ptr, ptr, ptr, ptr, ptr, ptr, ptr, ptr, ptr, ptr, %union.anon.1, i32, [64 x ptr], i32, i32, i32, [2 x %struct.OutputConfiguration], i32, i32, i32, i32, i32, i32, [8 x i8] }
%struct.AACDecDSP = type { ptr, ptr, ptr, ptr, ptr, ptr, ptr, ptr, ptr, ptr, ptr, ptr, ptr, ptr, ptr }
%struct.AACDecProc = type { ptr, ptr, ptr, ptr, ptr, ptr }
%struct.DynamicRangeControl = type { i32, [17 x i32], [17 x i32], [64 x i32], i32, i32, [17 x i32], i32 }
%union.anon = type { [1024 x i32] }
%union.anon.0 = type { [128 x i32] }
%union.anon.1 = type { ptr }
%struct.OutputConfiguration = type { %struct.MPEG4AudioConfig, [256 x [3 x i8]], i32, %struct.AVChannelLayout, i32, %struct.AACUSACConfig }
%struct.MPEG4AudioConfig = type { i32, i32, i32, i32, i32, i32, i32, i32, i32, i32, i32, i32 }
%struct.AACUSACConfig = type { i8, i16, i16, [64 x %struct.AACUsacElemConfig], i32, %struct.anon.6 }
%struct.AACUsacElemConfig = type { i32, i8, i8, %struct.anon, %struct.anon.4, %struct.anon.5 }
%struct.anon = type { i32, i8, %struct.anon.3 }
%struct.anon.3 = type { i8, i8, i8, i8, i8, i8, i8, i8 }
%struct.anon.4 = type { i8, i8, i8, i8, i8, i8, i8, i8, i8 }
%struct.anon.5 = type { i32, i8, i32, i32, ptr }
%struct.anon.6 = type { i8, i8, [64 x %struct.AACUSACLoudnessInfo], i8, i8, [64 x %struct.AACUSACLoudnessInfo] }
%struct.AACUSACLoudnessInfo = type <{ i16, %struct.anon.7, %struct.anon.8, i8, [16 x %struct.anon.9], i8 }>
%struct.anon.7 = type { i16 }
%struct.anon.8 = type { i32 }
%struct.anon.9 = type { i8, i8, i8 }
%struct.ChannelElement = type { i32, i8, [128 x i8], [11 x i8], [2 x %struct.SingleChannelElement], %struct.ChannelCoupling, [8 x i8], %struct.AACUsacStereo }
%struct.SingleChannelElement = type { %struct.IndividualChannelStream, %struct.AACUsacElemData, %struct.TemporalNoiseShaping, [128 x i32], [128 x i32], %union.anon.15, [12 x i8], %union.anon.16, %union.anon.17, %union.anon.18, %union.anon.19, %union.anon.20, %union.anon.21, %union.anon.22 }
%struct.IndividualChannelStream = type { i8, [2 x i32], [2 x i8], i32, i32, [8 x i8], %struct.LongTermPrediction, ptr, i32, i32, i32, i32, i32, i32, [41 x i8], [8 x i8] }
%struct.LongTermPrediction = type { i8, i16, %union.anon.10, [40 x i8] }
%union.anon.10 = type { i32 }
%struct.AACUsacElemData = type { i8, i8, i8, [16 x i8], %struct.anon.12, %struct.anon.13, %struct.anon.14, %struct.AACArithState }
%struct.anon.12 = type { i16, i32 }
%struct.anon.13 = type { i32, i8 }
%struct.anon.14 = type { i8, [8 x [8 x i32]] }
%struct.AACArithState = type { [513 x i8], i32, [4 x i8], i16 }
%struct.TemporalNoiseShaping = type { i32, [8 x i32], [8 x [4 x i32]], [8 x [4 x i32]], [8 x [4 x i32]], %union.anon.11 }
%union.anon.11 = type { [8 x [4 x [20 x i32]]] }
%union.anon.15 = type { [128 x i32] }
%union.anon.16 = type { [1024 x i32] }
%union.anon.17 = type { [1024 x i32] }
%union.anon.18 = type { [1536 x i32] }
%union.anon.19 = type { [2048 x i32] }
%union.anon.20 = type { [3072 x i32] }
%union.anon.21 = type { ptr }
%union.anon.22 = type { ptr }
%struct.ChannelCoupling = type { i32, i32, [8 x i32], [8 x i32], [8 x i32], %union.anon.24 }
%union.anon.24 = type { [16 x [120 x i32]] }
%struct.AACUsacStereo = type { i8, i8, i8, i8, i8, i8, i8, i8, [128 x i8], [8 x i8], %union.anon.25, %union.anon.26, %union.anon.27, %union.anon.28, %union.anon.29, %union.anon.30, %union.anon.31 }
%union.anon.25 = type { [1024 x i32] }
%union.anon.26 = type { [1024 x i32] }
%union.anon.27 = type { [1024 x i32] }
%union.anon.28 = type { [1024 x i32] }
%union.anon.29 = type { [1024 x i32] }
%union.anon.30 = type { [1024 x i32] }
%union.anon.31 = type { [1024 x i32] }

@.str.9 = private unnamed_addr constant [19 x i8] c"Too many channels\0A\00", align 1

; Function Attrs: cold nounwind optsize uwtable
define internal i32 @che_configure(ptr noundef %0, i32 noundef %1, i32 noundef %2, i32 noundef %3, ptr noundef %4) #5 {
  %6 = alloca i32, align 4
  %7 = alloca ptr, align 8
  %8 = alloca i32, align 4
  %9 = alloca i32, align 4
  %10 = alloca i32, align 4
  %11 = alloca ptr, align 8
  %12 = alloca i32, align 4
  %13 = alloca i32, align 4
  store ptr %0, ptr %7, align 8, !tbaa !4
  store i32 %1, ptr %8, align 4, !tbaa !11
  store i32 %2, ptr %9, align 4, !tbaa !11
  store i32 %3, ptr %10, align 4, !tbaa !11
  store ptr %4, ptr %11, align 8, !tbaa !53
  %14 = load ptr, ptr %11, align 8, !tbaa !53
  %15 = load i32, ptr %14, align 4, !tbaa !11
  %16 = icmp sge i32 %15, 64
  br i1 %16, label %17, label %18

17:                                               ; preds = %5
  store i32 -1094995529, ptr %6, align 4
  br label %177

18:                                               ; preds = %5
  %19 = load i32, ptr %8, align 4, !tbaa !11
  %20 = icmp ne i32 %19, 0
  br i1 %20, label %21, label %139

21:                                               ; preds = %18
  %22 = load ptr, ptr %7, align 8, !tbaa !4
  %23 = getelementptr inbounds nuw %struct.AACDecContext, ptr %22, i32 0, i32 7
  %24 = load i32, ptr %9, align 4, !tbaa !11
  %25 = sext i32 %24 to i64
  %26 = getelementptr inbounds [4 x [64 x ptr]], ptr %23, i64 0, i64 %25
  %27 = load i32, ptr %10, align 4, !tbaa !11
  %28 = sext i32 %27 to i64
  %29 = getelementptr inbounds [64 x ptr], ptr %26, i64 0, i64 %28
  %30 = load ptr, ptr %29, align 8, !tbaa !36
  %31 = icmp ne ptr %30, null
  br i1 %31, label %56, label %32

32:                                               ; preds = %21
  call void @llvm.lifetime.start.p0(i64 4, ptr %12) #12
  %33 = load ptr, ptr %7, align 8, !tbaa !4
  %34 = getelementptr inbounds nuw %struct.AACDecContext, ptr %33, i32 0, i32 3
  %35 = getelementptr inbounds nuw %struct.AACDecProc, ptr %34, i32 0, i32 2
  %36 = load ptr, ptr %35, align 8, !tbaa !55
  %37 = load ptr, ptr %7, align 8, !tbaa !4
  %38 = load ptr, ptr %7, align 8, !tbaa !4
  %39 = getelementptr inbounds nuw %struct.AACDecContext, ptr %38, i32 0, i32 7
  %40 = load i32, ptr %9, align 4, !tbaa !11
  %41 = sext i32 %40 to i64
  %42 = getelementptr inbounds [4 x [64 x ptr]], ptr %39, i64 0, i64 %41
  %43 = load i32, ptr %10, align 4, !tbaa !11
  %44 = sext i32 %43 to i64
  %45 = getelementptr inbounds [64 x ptr], ptr %42, i64 0, i64 %44
  %46 = load i32, ptr %9, align 4, !tbaa !11
  %47 = call i32 %36(ptr noundef %37, ptr noundef %45, i32 noundef %46)
  store i32 %47, ptr %12, align 4, !tbaa !11
  %48 = load i32, ptr %12, align 4, !tbaa !11
  %49 = icmp slt i32 %48, 0
  br i1 %49, label %50, label %52

50:                                               ; preds = %32
  %51 = load i32, ptr %12, align 4, !tbaa !11
  store i32 %51, ptr %6, align 4
  store i32 1, ptr %13, align 4
  br label %53

52:                                               ; preds = %32
  store i32 0, ptr %13, align 4
  br label %53

53:                                               ; preds = %52, %50
  call void @llvm.lifetime.end.p0(i64 4, ptr %12) #12
  %54 = load i32, ptr %13, align 4
  switch i32 %54, label %179 [
    i32 0, label %55
    i32 1, label %177
  ]

55:                                               ; preds = %53
  br label %56

56:                                               ; preds = %55, %21
  %57 = load i32, ptr %9, align 4, !tbaa !11
  %58 = icmp ne i32 %57, 2
  br i1 %58, label %59, label %138

59:                                               ; preds = %56
  %60 = load ptr, ptr %11, align 8, !tbaa !53
  %61 = load i32, ptr %60, align 4, !tbaa !11
  %62 = load i32, ptr %9, align 4, !tbaa !11
  %63 = icmp eq i32 %62, 1
  br i1 %63, label %77, label %64

64:                                               ; preds = %59
  %65 = load i32, ptr %9, align 4, !tbaa !11
  %66 = icmp eq i32 %65, 0
  br i1 %66, label %67, label %75

67:                                               ; preds = %64
  %68 = load ptr, ptr %7, align 8, !tbaa !4
  %69 = getelementptr inbounds nuw %struct.AACDecContext, ptr %68, i32 0, i32 38
  %70 = getelementptr inbounds [2 x %struct.OutputConfiguration], ptr %69, i64 0, i64 1
  %71 = getelementptr inbounds nuw %struct.OutputConfiguration, ptr %70, i32 0, i32 0
  %72 = getelementptr inbounds nuw %struct.MPEG4AudioConfig, ptr %71, i32 0, i32 10
  %73 = load i32, ptr %72, align 8, !tbaa !39
  %74 = icmp eq i32 %73, 1
  br label %75

75:                                               ; preds = %67, %64
  %76 = phi i1 [ false, %64 ], [ %74, %67 ]
  br label %77

77:                                               ; preds = %75, %59
  %78 = phi i1 [ true, %59 ], [ %76, %75 ]
  %79 = zext i1 %78 to i32
  %80 = sub nsw i32 64, %79
  %81 = icmp sge i32 %61, %80
  br i1 %81, label %82, label %86

82:                                               ; preds = %77
  %83 = load ptr, ptr %7, align 8, !tbaa !4
  %84 = getelementptr inbounds nuw %struct.AACDecContext, ptr %83, i32 0, i32 1
  %85 = load ptr, ptr %84, align 8, !tbaa !13
  call void (ptr, i32, ptr, ...) @av_log(ptr noundef %85, i32 noundef 16, ptr noundef @.str.9)
  store i32 -1094995529, ptr %6, align 4
  br label %177

86:                                               ; preds = %77
  %87 = load ptr, ptr %7, align 8, !tbaa !4
  %88 = getelementptr inbounds nuw %struct.AACDecContext, ptr %87, i32 0, i32 7
  %89 = load i32, ptr %9, align 4, !tbaa !11
  %90 = sext i32 %89 to i64
  %91 = getelementptr inbounds [4 x [64 x ptr]], ptr %88, i64 0, i64 %90
  %92 = load i32, ptr %10, align 4, !tbaa !11
  %93 = sext i32 %92 to i64
  %94 = getelementptr inbounds [64 x ptr], ptr %91, i64 0, i64 %93
  %95 = load ptr, ptr %94, align 8, !tbaa !36
  %96 = getelementptr inbounds nuw %struct.ChannelElement, ptr %95, i32 0, i32 4
  %97 = getelementptr inbounds [2 x %struct.SingleChannelElement], ptr %96, i64 0, i64 0
  %98 = load ptr, ptr %7, align 8, !tbaa !4
  %99 = getelementptr inbounds nuw %struct.AACDecContext, ptr %98, i32 0, i32 34
  %100 = load ptr, ptr %11, align 8, !tbaa !53
  %101 = load i32, ptr %100, align 4, !tbaa !11
  %102 = add nsw i32 %101, 1
  store i32 %102, ptr %100, align 4, !tbaa !11
  %103 = sext i32 %101 to i64
  %104 = getelementptr inbounds [64 x ptr], ptr %99, i64 0, i64 %103
  store ptr %97, ptr %104, align 8, !tbaa !56
  %105 = load i32, ptr %9, align 4, !tbaa !11
  %106 = icmp eq i32 %105, 1
  br i1 %106, label %118, label %107

107:                                              ; preds = %86
  %108 = load i32, ptr %9, align 4, !tbaa !11
  %109 = icmp eq i32 %108, 0
  br i1 %109, label %110, label %137

110:                                              ; preds = %107
  %111 = load ptr, ptr %7, align 8, !tbaa !4
  %112 = getelementptr inbounds nuw %struct.AACDecContext, ptr %111, i32 0, i32 38
  %113 = getelementptr inbounds [2 x %struct.OutputConfiguration], ptr %112, i64 0, i64 1
  %114 = getelementptr inbounds nuw %struct.OutputConfiguration, ptr %113, i32 0, i32 0
  %115 = getelementptr inbounds nuw %struct.MPEG4AudioConfig, ptr %114, i32 0, i32 10
  %116 = load i32, ptr %115, align 8, !tbaa !39
  %117 = icmp eq i32 %116, 1
  br i1 %117, label %118, label %137

118:                                              ; preds = %110, %86
  %119 = load ptr, ptr %7, align 8, !tbaa !4
  %120 = getelementptr inbounds nuw %struct.AACDecContext, ptr %119, i32 0, i32 7
  %121 = load i32, ptr %9, align 4, !tbaa !11
  %122 = sext i32 %121 to i64
  %123 = getelementptr inbounds [4 x [64 x ptr]], ptr %120, i64 0, i64 %122
  %124 = load i32, ptr %10, align 4, !tbaa !11
  %125 = sext i32 %124 to i64
  %126 = getelementptr inbounds [64 x ptr], ptr %123, i64 0, i64 %125
  %127 = load ptr, ptr %126, align 8, !tbaa !36
  %128 = getelementptr inbounds nuw %struct.ChannelElement, ptr %127, i32 0, i32 4
  %129 = getelementptr inbounds [2 x %struct.SingleChannelElement], ptr %128, i64 0, i64 1
  %130 = load ptr, ptr %7, align 8, !tbaa !4
  %131 = getelementptr inbounds nuw %struct.AACDecContext, ptr %130, i32 0, i32 34
  %132 = load ptr, ptr %11, align 8, !tbaa !53
  %133 = load i32, ptr %132, align 4, !tbaa !11
  %134 = add nsw i32 %133, 1
  store i32 %134, ptr %132, align 4, !tbaa !11
  %135 = sext i32 %133 to i64
  %136 = getelementptr inbounds [64 x ptr], ptr %131, i64 0, i64 %135
  store ptr %129, ptr %136, align 8, !tbaa !56
  br label %137

137:                                              ; preds = %118, %110, %107
  br label %138

138:                                              ; preds = %137, %56
  br label %176

139:                                              ; preds = %18
  %140 = load ptr, ptr %7, align 8, !tbaa !4
  %141 = getelementptr inbounds nuw %struct.AACDecContext, ptr %140, i32 0, i32 7
  %142 = load i32, ptr %9, align 4, !tbaa !11
  %143 = sext i32 %142 to i64
  %144 = getelementptr inbounds [4 x [64 x ptr]], ptr %141, i64 0, i64 %143
  %145 = load i32, ptr %10, align 4, !tbaa !11
  %146 = sext i32 %145 to i64
  %147 = getelementptr inbounds [64 x ptr], ptr %144, i64 0, i64 %146
  %148 = load ptr, ptr %147, align 8, !tbaa !36
  %149 = icmp ne ptr %148, null
  br i1 %149, label %150, label %164

150:                                              ; preds = %139
  %151 = load ptr, ptr %7, align 8, !tbaa !4
  %152 = getelementptr inbounds nuw %struct.AACDecContext, ptr %151, i32 0, i32 3
  %153 = getelementptr inbounds nuw %struct.AACDecProc, ptr %152, i32 0, i32 5
  %154 = load ptr, ptr %153, align 8, !tbaa !58
  %155 = load ptr, ptr %7, align 8, !tbaa !4
  %156 = getelementptr inbounds nuw %struct.AACDecContext, ptr %155, i32 0, i32 7
  %157 = load i32, ptr %9, align 4, !tbaa !11
  %158 = sext i32 %157 to i64
  %159 = getelementptr inbounds [4 x [64 x ptr]], ptr %156, i64 0, i64 %158
  %160 = load i32, ptr %10, align 4, !tbaa !11
  %161 = sext i32 %160 to i64
  %162 = getelementptr inbounds [64 x ptr], ptr %159, i64 0, i64 %161
  %163 = load ptr, ptr %162, align 8, !tbaa !36
  call void %154(ptr noundef %163)
  br label %164

164:                                              ; preds = %150, %139
  %165 = load ptr, ptr %7, align 8, !tbaa !4
  %166 = getelementptr inbounds nuw %struct.AACDecContext, ptr %165, i32 0, i32 7
  %167 = load i32, ptr %9, align 4, !tbaa !11
  %168 = sext i32 %167 to i64
  %169 = getelementptr inbounds [4 x [64 x ptr]], ptr %166, i64 0, i64 %168
  %170 = load i32, ptr %10, align 4, !tbaa !11
  %171 = sext i32 %170 to i64
  %172 = getelementptr inbounds [64 x ptr], ptr %169, i64 0, i64 %171
  call void @av_freep(ptr noundef %172)
  %173 = load ptr, ptr %7, align 8, !tbaa !4
  %174 = getelementptr inbounds nuw %struct.AACDecContext, ptr %173, i32 0, i32 34
  %175 = getelementptr inbounds [64 x ptr], ptr %174, i64 0, i64 0
  call void @llvm.memset.p0.i64(ptr align 16 %175, i8 0, i64 512, i1 false)
  br label %176

176:                                              ; preds = %164, %138
  store i32 0, ptr %6, align 4
  br label %177

177:                                              ; preds = %176, %82, %53, %17
  %178 = load i32, ptr %6, align 4
  ret i32 %178

179:                                              ; preds = %53
  unreachable
}