; Function Attrs: cold nounwind optsize uwtable
define internal fastcc range(i32 -2147483648, 1) i32 @che_configure(ptr noundef %0, i32 noundef range(i32 0, 256) %1, i32 noundef range(i32 0, 256) %2, i32 noundef range(i32 0, 256) %3, ptr noundef nonnull captures(none) %4) unnamed_addr #5 {
  %6 = load i32, ptr %4, align 4, !tbaa !17
  %7 = icmp sgt i32 %6, 63
  br i1 %7, label %64, label %8

8:                                                ; preds = %5
  %.not = icmp eq i32 %1, 0
  %9 = getelementptr inbounds nuw i8, ptr %0, i64 672
  %10 = zext nneg i32 %2 to i64
  %11 = zext nneg i32 %3 to i64
  %12 = getelementptr inbounds nuw [4 x [64 x ptr]], ptr %9, i64 0, i64 %10, i64 %11
  %13 = load ptr, ptr %12, align 8, !tbaa !44
  %.not47 = icmp eq ptr %13, null
  br i1 %.not, label %58, label %14

14:                                               ; preds = %8
  br i1 %.not47, label %15, label %20

15:                                               ; preds = %14
  %16 = getelementptr inbounds nuw i8, ptr %0, i64 152
  %17 = load ptr, ptr %16, align 8, !tbaa !81
  %18 = tail call i32 %17(ptr noundef nonnull %0, ptr noundef nonnull %12, i32 noundef %2) #13
  %19 = icmp sgt i32 %18, -1
  br i1 %19, label %20, label %64

20:                                               ; preds = %15, %14
  %.not49 = icmp eq i32 %2, 2
  br i1 %.not49, label %64, label %21

21:                                               ; preds = %20
  %22 = load i32, ptr %4, align 4, !tbaa !17
  %trunc = trunc nuw i32 %2 to i8
  switch i8 %trunc, label %28 [
    i8 1, label %.thread
    i8 0, label %23
  ]

23:                                               ; preds = %21
  %24 = getelementptr inbounds nuw i8, ptr %0, i64 22512
  %25 = load i32, ptr %24, align 8, !tbaa !47
  %26 = icmp eq i32 %25, 1
  %27 = select i1 %26, i32 63, i32 64
  br label %28

28:                                               ; preds = %21, %23
  %.neg50 = phi i32 [ %27, %23 ], [ 64, %21 ]
  %.not51 = icmp slt i32 %22, %.neg50
  br i1 %.not51, label %38, label %35

.thread:                                          ; preds = %21
  %.not5153 = icmp slt i32 %22, 63
  br i1 %.not5153, label %.thread54, label %35

.thread54:                                        ; preds = %.thread
  %29 = load ptr, ptr %12, align 8, !tbaa !44
  %30 = getelementptr inbounds nuw i8, ptr %29, i64 144
  %31 = getelementptr inbounds nuw i8, ptr %0, i64 9552
  %32 = add nsw i32 %22, 1
  %33 = sext i32 %22 to i64
  %34 = getelementptr inbounds [64 x ptr], ptr %31, i64 0, i64 %33
  store ptr %30, ptr %34, align 8, !tbaa !76
  br label %50

35:                                               ; preds = %.thread, %28
  %36 = getelementptr inbounds nuw i8, ptr %0, i64 8
  %37 = load ptr, ptr %36, align 8, !tbaa !4
  tail call void (ptr, i32, ptr, ...) @av_log(ptr noundef %37, i32 noundef 16, ptr noundef nonnull @.str.9) #13
  br label %64

38:                                               ; preds = %28
  %39 = load ptr, ptr %12, align 8, !tbaa !44
  %40 = getelementptr inbounds nuw i8, ptr %39, i64 144
  %41 = getelementptr inbounds nuw i8, ptr %0, i64 9552
  %42 = add nsw i32 %22, 1
  store i32 %42, ptr %4, align 4, !tbaa !17
  %43 = sext i32 %22 to i64
  %44 = getelementptr inbounds [64 x ptr], ptr %41, i64 0, i64 %43
  store ptr %40, ptr %44, align 8, !tbaa !76
  %45 = icmp eq i32 %2, 0
  br i1 %45, label %46, label %64

46:                                               ; preds = %38
  %47 = getelementptr inbounds nuw i8, ptr %0, i64 22512
  %48 = load i32, ptr %47, align 8, !tbaa !47
  %49 = icmp eq i32 %48, 1
  br i1 %49, label %50, label %64

50:                                               ; preds = %.thread54, %46
  %51 = phi i32 [ %32, %.thread54 ], [ %42, %46 ]
  %52 = phi ptr [ %29, %.thread54 ], [ %39, %46 ]
  %53 = getelementptr inbounds nuw i8, ptr %0, i64 9552
  %54 = getelementptr inbounds nuw i8, ptr %52, i64 40496
  %55 = add nsw i32 %51, 1
  store i32 %55, ptr %4, align 4, !tbaa !17
  %56 = sext i32 %51 to i64
  %57 = getelementptr inbounds [64 x ptr], ptr %53, i64 0, i64 %56
  store ptr %54, ptr %57, align 8, !tbaa !76
  br label %64

58:                                               ; preds = %8
  br i1 %.not47, label %62, label %59

59:                                               ; preds = %58
  %60 = getelementptr inbounds nuw i8, ptr %0, i64 176
  %61 = load ptr, ptr %60, align 8, !tbaa !82
  tail call void %61(ptr noundef nonnull %13) #13
  br label %62

62:                                               ; preds = %59, %58
  tail call void @av_freep(ptr noundef nonnull %12) #13
  %63 = getelementptr inbounds nuw i8, ptr %0, i64 9552
  tail call void @llvm.memset.p0.i64(ptr noundef nonnull align 16 dereferenceable(512) %63, i8 0, i64 512, i1 false)
  br label %64

64:                                               ; preds = %15, %62, %38, %46, %50, %20, %5, %35
  %.044 = phi i32 [ -1094995529, %35 ], [ %18, %15 ], [ -1094995529, %5 ], [ 0, %20 ], [ 0, %50 ], [ 0, %46 ], [ 0, %38 ], [ 0, %62 ]
  ret i32 %.044
}